target datalayout = "e-m:e-p270:32:32-p271:32:32-p272:64:64-i64:64-i128:128-f80:128-n8:16:32:64-S128"
target triple = "x86_64-pc-linux-gnu"

%struct.H5O_loc_t = type { ptr, i64, i8 }
%struct.H5A_t = type { %struct.H5O_shared_t, %struct.H5O_loc_t, i8, %struct.H5G_name_t, ptr }
%struct.H5O_shared_t = type { i32, ptr, i32, %union.anon }
%union.anon = type { %struct.H5O_mesg_loc_t }
%struct.H5O_mesg_loc_t = type { i32, i64 }
%struct.H5G_name_t = type { ptr, ptr, i32 }
%struct.H5A_shared_t = type { i8, ptr, i32, ptr, i64, ptr, i64, ptr, i64, i32, i32 }

@.str = private unnamed_addr constant [106 x i8] c"generated/home/dtcxzyw/WorkSpace/Projects/compilers/llvm-opt-benchmark/bench/hdf5/hdf5/src/H5Oattribute.c\00", align 1
@H5E_ATTR_g = external global i64, align 8
@H5E_CANTGET_g = external global i64, align 8
@H5E_BADITER_g = external global i64, align 8
@H5E_BADVALUE_g = external global i64, align 8
@H5E_BADTYPE_g = external global i64, align 8
@__func__.H5O__attr_find_opened_attr = private unnamed_addr constant [27 x i8] c"H5O__attr_find_opened_attr\00", align 1
@.str.56 = private unnamed_addr constant [29 x i8] c"can't get file serial number\00", align 1
@.str.57 = private unnamed_addr constant [30 x i8] c"can't count opened attributes\00", align 1
@H5E_CANTALLOC_g = external global i64, align 8
@.str.58 = private unnamed_addr constant [48 x i8] c"unable to allocate memory for attribute ID list\00", align 1
@.str.59 = private unnamed_addr constant [35 x i8] c"can't get IDs of opened attributes\00", align 1
@.str.60 = private unnamed_addr constant [30 x i8] c"open attribute count mismatch\00", align 1
@.str.61 = private unnamed_addr constant [17 x i8] c"not an attribute\00", align 1

; Function Attrs: nounwind uwtable
define internal i32 @H5O__attr_find_opened_attr(ptr noundef %0, ptr noundef %1, ptr noundef %2) #0 {
  %4 = alloca ptr, align 8
  %5 = alloca ptr, align 8
  %6 = alloca ptr, align 8
  %7 = alloca ptr, align 8
  %8 = alloca i64, align 8
  %9 = alloca i64, align 8
  %10 = alloca i32, align 4
  %11 = alloca i8, align 1
  %12 = alloca i64, align 8
  %13 = alloca i64, align 8
  %14 = alloca i64, align 8
  store ptr %0, ptr %4, align 8
  store ptr %1, ptr %5, align 8
  store ptr %2, ptr %6, align 8
  store ptr null, ptr %7, align 8
  store i32 0, ptr %10, align 4
  store i8 0, ptr %11, align 1
  %15 = load ptr, ptr %4, align 8
  %16 = getelementptr inbounds %struct.H5O_loc_t, ptr %15, i32 0, i32 0
  %17 = load ptr, ptr %16, align 8
  %18 = call i32 @H5F_get_fileno(ptr noundef %17, ptr noundef %8)
  %19 = icmp slt i32 %18, 0
  br i1 %19, label %20, label %35

20:                                               ; preds = %3
  br label %21

21:                                               ; preds = %20
  br label %22

22:                                               ; preds = %21
  br label %23

23:                                               ; preds = %22
  %24 = load i64, ptr @H5E_ATTR_g, align 8
  %25 = load i64, ptr @H5E_BADVALUE_g, align 8
  %26 = call i32 (ptr, ptr, i32, i64, i64, ptr, ...) @H5E_printf_stack(ptr noundef @.str, ptr noundef @__func__.H5O__attr_find_opened_attr, i32 noundef 645, i64 noundef %24, i64 noundef %25, ptr noundef @.str.56)
  br label %27

27:                                               ; preds = %23
  store i8 1, ptr %11, align 1
  %28 = load i8, ptr %11, align 1
  %29 = trunc i8 %28 to i1
  %30 = zext i1 %29 to i8
  store i8 %30, ptr %11, align 1
  br label %31

31:                                               ; preds = %27
  br label %32

32:                                               ; preds = %31
  store i32 -1, ptr %10, align 4
  br label %203

33:                                               ; No predecessors!
  br label %34

34:                                               ; preds = %33
  br label %35

35:                                               ; preds = %34, %3
  %36 = load ptr, ptr %4, align 8
  %37 = getelementptr inbounds %struct.H5O_loc_t, ptr %36, i32 0, i32 0
  %38 = load ptr, ptr %37, align 8
  %39 = call i32 @H5F_get_obj_count(ptr noundef %38, i32 noundef 48, i1 noundef zeroext false, ptr noundef %9)
  %40 = icmp slt i32 %39, 0
  br i1 %40, label %41, label %56

41:                                               ; preds = %35
  br label %42

42:                                               ; preds = %41
  br label %43

43:                                               ; preds = %42
  br label %44

44:                                               ; preds = %43
  %45 = load i64, ptr @H5E_ATTR_g, align 8
  %46 = load i64, ptr @H5E_CANTGET_g, align 8
  %47 = call i32 (ptr, ptr, i32, i64, i64, ptr, ...) @H5E_printf_stack(ptr noundef @.str, ptr noundef @__func__.H5O__attr_find_opened_attr, i32 noundef 649, i64 noundef %45, i64 noundef %46, ptr noundef @.str.57)
  br label %48

48:                                               ; preds = %44
  store i8 1, ptr %11, align 1
  %49 = load i8, ptr %11, align 1
  %50 = trunc i8 %49 to i1
  %51 = zext i1 %50 to i8
  store i8 %51, ptr %11, align 1
  br label %52

52:                                               ; preds = %48
  br label %53

53:                                               ; preds = %52
  store i32 -1, ptr %10, align 4
  br label %203

54:                                               ; No predecessors!
  br label %55

55:                                               ; preds = %54
  br label %56

56:                                               ; preds = %55, %35
  %57 = load i64, ptr %9, align 8
  %58 = icmp ne i64 %57, 0
  br i1 %58, label %59, label %202

59:                                               ; preds = %56
  %60 = load i64, ptr %9, align 8
  %61 = mul i64 %60, 8
  %62 = call noalias ptr @malloc(i64 noundef %61) #7
  store ptr %62, ptr %7, align 8
  %63 = icmp eq ptr null, %62
  br i1 %63, label %64, label %79

64:                                               ; preds = %59
  br label %65

65:                                               ; preds = %64
  br label %66

66:                                               ; preds = %65
  br label %67

67:                                               ; preds = %66
  %68 = load i64, ptr @H5E_ATTR_g, align 8
  %69 = load i64, ptr @H5E_CANTALLOC_g, align 8
  %70 = call i32 (ptr, ptr, i32, i64, i64, ptr, ...) @H5E_printf_stack(ptr noundef @.str, ptr noundef @__func__.H5O__attr_find_opened_attr, i32 noundef 658, i64 noundef %68, i64 noundef %69, ptr noundef @.str.58)
  br label %71

71:                                               ; preds = %67
  store i8 1, ptr %11, align 1
  %72 = load i8, ptr %11, align 1
  %73 = trunc i8 %72 to i1
  %74 = zext i1 %73 to i8
  store i8 %74, ptr %11, align 1
  br label %75

75:                                               ; preds = %71
  br label %76

76:                                               ; preds = %75
  store i32 -1, ptr %10, align 4
  br label %203

77:                                               ; No predecessors!
  br label %78

78:                                               ; preds = %77
  br label %79

79:                                               ; preds = %78, %59
  %80 = load ptr, ptr %4, align 8
  %81 = getelementptr inbounds %struct.H5O_loc_t, ptr %80, i32 0, i32 0
  %82 = load ptr, ptr %81, align 8
  %83 = load i64, ptr %9, align 8
  %84 = load ptr, ptr %7, align 8
  %85 = call i32 @H5F_get_obj_ids(ptr noundef %82, i32 noundef 48, i64 noundef %83, ptr noundef %84, i1 noundef zeroext false, ptr noundef %12)
  %86 = icmp slt i32 %85, 0
  br i1 %86, label %87, label %102

87:                                               ; preds = %79
  br label %88

88:                                               ; preds = %87
  br label %89

89:                                               ; preds = %88
  br label %90

90:                                               ; preds = %89
  %91 = load i64, ptr @H5E_ATTR_g, align 8
  %92 = load i64, ptr @H5E_CANTGET_g, align 8
  %93 = call i32 (ptr, ptr, i32, i64, i64, ptr, ...) @H5E_printf_stack(ptr noundef @.str, ptr noundef @__func__.H5O__attr_find_opened_attr, i32 noundef 663, i64 noundef %91, i64 noundef %92, ptr noundef @.str.59)
  br label %94

94:                                               ; preds = %90
  store i8 1, ptr %11, align 1
  %95 = load i8, ptr %11, align 1
  %96 = trunc i8 %95 to i1
  %97 = zext i1 %96 to i8
  store i8 %97, ptr %11, align 1
  br label %98

98:                                               ; preds = %94
  br label %99

99:                                               ; preds = %98
  store i32 -1, ptr %10, align 4
  br label %203

100:                                              ; No predecessors!
  br label %101

101:                                              ; preds = %100
  br label %102

102:                                              ; preds = %101, %79
  %103 = load i64, ptr %12, align 8
  %104 = load i64, ptr %9, align 8
  %105 = icmp ne i64 %103, %104
  br i1 %105, label %106, label %121

106:                                              ; preds = %102
  br label %107

107:                                              ; preds = %106
  br label %108

108:                                              ; preds = %107
  br label %109

109:                                              ; preds = %108
  %110 = load i64, ptr @H5E_ATTR_g, align 8
  %111 = load i64, ptr @H5E_BADITER_g, align 8
  %112 = call i32 (ptr, ptr, i32, i64, i64, ptr, ...) @H5E_printf_stack(ptr noundef @.str, ptr noundef @__func__.H5O__attr_find_opened_attr, i32 noundef 665, i64 noundef %110, i64 noundef %111, ptr noundef @.str.60)
  br label %113

113:                                              ; preds = %109
  store i8 1, ptr %11, align 1
  %114 = load i8, ptr %11, align 1
  %115 = trunc i8 %114 to i1
  %116 = zext i1 %115 to i8
  store i8 %116, ptr %11, align 1
  br label %117

117:                                              ; preds = %113
  br label %118

118:                                              ; preds = %117
  store i32 -1, ptr %10, align 4
  br label %203

119:                                              ; No predecessors!
  br label %120

120:                                              ; preds = %119
  br label %121

121:                                              ; preds = %120, %102
  store i64 0, ptr %13, align 8
  br label %122

122:                                              ; preds = %198, %121
  %123 = load i64, ptr %13, align 8
  %124 = load i64, ptr %9, align 8
  %125 = icmp ult i64 %123, %124
  br i1 %125, label %126, label %201

126:                                              ; preds = %122
  %127 = load ptr, ptr %7, align 8
  %128 = load i64, ptr %13, align 8
  %129 = getelementptr inbounds i64, ptr %127, i64 %128
  %130 = load i64, ptr %129, align 8
  %131 = call ptr @H5VL_object_verify(i64 noundef %130, i32 noundef 7)
  %132 = load ptr, ptr %5, align 8
  store ptr %131, ptr %132, align 8
  %133 = icmp eq ptr null, %131
  br i1 %133, label %134, label %149

134:                                              ; preds = %126
  br label %135

135:                                              ; preds = %134
  br label %136

136:                                              ; preds = %135
  br label %137

137:                                              ; preds = %136
  %138 = load i64, ptr @H5E_ATTR_g, align 8
  %139 = load i64, ptr @H5E_BADTYPE_g, align 8
  %140 = call i32 (ptr, ptr, i32, i64, i64, ptr, ...) @H5E_printf_stack(ptr noundef @.str, ptr noundef @__func__.H5O__attr_find_opened_attr, i32 noundef 673, i64 noundef %138, i64 noundef %139, ptr noundef @.str.61)
  br label %141

141:                                              ; preds = %137
  store i8 1, ptr %11, align 1
  %142 = load i8, ptr %11, align 1
  %143 = trunc i8 %142 to i1
  %144 = zext i1 %143 to i8
  store i8 %144, ptr %11, align 1
  br label %145

145:                                              ; preds = %141
  br label %146

146:                                              ; preds = %145
  store i32 -1, ptr %10, align 4
  br label %203

147:                                              ; No predecessors!
  br label %148

148:                                              ; preds = %147
  br label %149

149:                                              ; preds = %148, %126
  %150 = load ptr, ptr %5, align 8
  %151 = load ptr, ptr %150, align 8
  %152 = getelementptr inbounds %struct.H5A_t, ptr %151, i32 0, i32 1
  %153 = getelementptr inbounds %struct.H5O_loc_t, ptr %152, i32 0, i32 0
  %154 = load ptr, ptr %153, align 8
  %155 = call i32 @H5F_get_fileno(ptr noundef %154, ptr noundef %14)
  %156 = icmp slt i32 %155, 0
  br i1 %156, label %157, label %172

157:                                              ; preds = %149
  br label %158

158:                                              ; preds = %157
  br label %159

159:                                              ; preds = %158
  br label %160

160:                                              ; preds = %159
  %161 = load i64, ptr @H5E_ATTR_g, align 8
  %162 = load i64, ptr @H5E_BADVALUE_g, align 8
  %163 = call i32 (ptr, ptr, i32, i64, i64, ptr, ...) @H5E_printf_stack(ptr noundef @.str, ptr noundef @__func__.H5O__attr_find_opened_attr, i32 noundef 677, i64 noundef %161, i64 noundef %162, ptr noundef @.str.56)
  br label %164

164:                                              ; preds = %160
  store i8 1, ptr %11, align 1
  %165 = load i8, ptr %11, align 1
  %166 = trunc i8 %165 to i1
  %167 = zext i1 %166 to i8
  store i8 %167, ptr %11, align 1
  br label %168

168:                                              ; preds = %164
  br label %169

169:                                              ; preds = %168
  store i32 -1, ptr %10, align 4
  br label %203

170:                                              ; No predecessors!
  br label %171

171:                                              ; preds = %170
  br label %172

172:                                              ; preds = %171, %149
  %173 = load ptr, ptr %6, align 8
  %174 = load ptr, ptr %5, align 8
  %175 = load ptr, ptr %174, align 8
  %176 = getelementptr inbounds %struct.H5A_t, ptr %175, i32 0, i32 4
  %177 = load ptr, ptr %176, align 8
  %178 = getelementptr inbounds %struct.H5A_shared_t, ptr %177, i32 0, i32 1
  %179 = load ptr, ptr %178, align 8
  %180 = call i32 @strcmp(ptr noundef %173, ptr noundef %179) #8
  %181 = icmp ne i32 %180, 0
  br i1 %181, label %197, label %182

182:                                              ; preds = %172
  %183 = load ptr, ptr %4, align 8
  %184 = getelementptr inbounds %struct.H5O_loc_t, ptr %183, i32 0, i32 1
  %185 = load i64, ptr %184, align 8
  %186 = load ptr, ptr %5, align 8
  %187 = load ptr, ptr %186, align 8
  %188 = getelementptr inbounds %struct.H5A_t, ptr %187, i32 0, i32 1
  %189 = getelementptr inbounds %struct.H5O_loc_t, ptr %188, i32 0, i32 1
  %190 = load i64, ptr %189, align 8
  %191 = icmp eq i64 %185, %190
  br i1 %191, label %192, label %197

192:                                              ; preds = %182
  %193 = load i64, ptr %8, align 8
  %194 = load i64, ptr %14, align 8
  %195 = icmp eq i64 %193, %194
  br i1 %195, label %196, label %197

196:                                              ; preds = %192
  store i32 1, ptr %10, align 4
  br label %201

197:                                              ; preds = %192, %182, %172
  br label %198

198:                                              ; preds = %197
  %199 = load i64, ptr %13, align 8
  %200 = add i64 %199, 1
  store i64 %200, ptr %13, align 8
  br label %122

201:                                              ; preds = %196, %122
  br label %202

202:                                              ; preds = %201, %56
  br label %203

203:                                              ; preds = %202, %169, %146, %118, %99, %76, %53, %32
  %204 = load ptr, ptr %7, align 8
  %205 = icmp ne ptr %204, null
  br i1 %205, label %206, label %208

206:                                              ; preds = %203
  %207 = load ptr, ptr %7, align 8
  call void @free(ptr noundef %207) #9
  br label %208

208:                                              ; preds = %206, %203
  %209 = load i32, ptr %10, align 4
  ret i32 %209
}