; Function Attrs: nounwind uwtable
define internal fastcc range(i32 -1, 2) i32 @H5O__attr_find_opened_attr(ptr nocapture noundef readonly %0, ptr nocapture noundef %1, ptr nocapture noundef readonly %2) unnamed_addr #0 {
  %4 = alloca i64, align 8
  %5 = alloca i64, align 8
  %6 = alloca i64, align 8
  %7 = alloca i64, align 8
  %8 = load ptr, ptr %0, align 8
  %9 = call i32 @H5F_get_fileno(ptr noundef %8, ptr noundef nonnull %4) #9
  %10 = icmp slt i32 %9, 0
  br i1 %10, label %11, label %15

11:                                               ; preds = %3
  %12 = load i64, ptr @H5E_ATTR_g, align 8
  %13 = load i64, ptr @H5E_BADVALUE_g, align 8
  %14 = call i32 (ptr, ptr, i32, i64, i64, ptr, ...) @H5E_printf_stack(ptr noundef nonnull @.str, ptr noundef nonnull @__func__.H5O__attr_find_opened_attr, i32 noundef 645, i64 noundef %12, i64 noundef %13, ptr noundef nonnull @.str.56) #9
  br label %.thread

15:                                               ; preds = %3
  %16 = load ptr, ptr %0, align 8
  %17 = call i32 @H5F_get_obj_count(ptr noundef %16, i32 noundef 48, i1 noundef zeroext false, ptr noundef nonnull %5) #9
  %18 = icmp slt i32 %17, 0
  br i1 %18, label %19, label %23

19:                                               ; preds = %15
  %20 = load i64, ptr @H5E_ATTR_g, align 8
  %21 = load i64, ptr @H5E_CANTGET_g, align 8
  %22 = call i32 (ptr, ptr, i32, i64, i64, ptr, ...) @H5E_printf_stack(ptr noundef nonnull @.str, ptr noundef nonnull @__func__.H5O__attr_find_opened_attr, i32 noundef 649, i64 noundef %20, i64 noundef %21, ptr noundef nonnull @.str.57) #9
  br label %.thread

23:                                               ; preds = %15
  %24 = load i64, ptr %5, align 8
  %.not = icmp eq i64 %24, 0
  br i1 %.not, label %.thread, label %25

25:                                               ; preds = %23
  %26 = shl i64 %24, 3
  %27 = call noalias ptr @malloc(i64 noundef %26) #10
  %28 = icmp eq ptr %27, null
  br i1 %28, label %29, label %33

29:                                               ; preds = %25
  %30 = load i64, ptr @H5E_ATTR_g, align 8
  %31 = load i64, ptr @H5E_CANTALLOC_g, align 8
  %32 = call i32 (ptr, ptr, i32, i64, i64, ptr, ...) @H5E_printf_stack(ptr noundef nonnull @.str, ptr noundef nonnull @__func__.H5O__attr_find_opened_attr, i32 noundef 658, i64 noundef %30, i64 noundef %31, ptr noundef nonnull @.str.58) #9
  br label %.thread

33:                                               ; preds = %25
  %34 = load ptr, ptr %0, align 8
  %35 = call i32 @H5F_get_obj_ids(ptr noundef %34, i32 noundef 48, i64 noundef %24, ptr noundef nonnull %27, i1 noundef zeroext false, ptr noundef nonnull %6) #9
  %36 = icmp slt i32 %35, 0
  br i1 %36, label %37, label %41

37:                                               ; preds = %33
  %38 = load i64, ptr @H5E_ATTR_g, align 8
  %39 = load i64, ptr @H5E_CANTGET_g, align 8
  %40 = call i32 (ptr, ptr, i32, i64, i64, ptr, ...) @H5E_printf_stack(ptr noundef nonnull @.str, ptr noundef nonnull @__func__.H5O__attr_find_opened_attr, i32 noundef 663, i64 noundef %38, i64 noundef %39, ptr noundef nonnull @.str.59) #9
  br label %.thread36

41:                                               ; preds = %33
  %42 = load i64, ptr %6, align 8
  %43 = load i64, ptr %5, align 8
  %.not28 = icmp eq i64 %42, %43
  br i1 %.not28, label %.preheader, label %45

.preheader:                                       ; preds = %41
  %.not45 = icmp eq i64 %42, 0
  br i1 %.not45, label %.thread36, label %.lr.ph

.lr.ph:                                           ; preds = %.preheader
  %44 = getelementptr inbounds i8, ptr %0, i64 8
  br label %49

45:                                               ; preds = %41
  %46 = load i64, ptr @H5E_ATTR_g, align 8
  %47 = load i64, ptr @H5E_BADITER_g, align 8
  %48 = call i32 (ptr, ptr, i32, i64, i64, ptr, ...) @H5E_printf_stack(ptr noundef nonnull @.str, ptr noundef nonnull @__func__.H5O__attr_find_opened_attr, i32 noundef 665, i64 noundef %46, i64 noundef %47, ptr noundef nonnull @.str.60) #9
  br label %.thread36

49:                                               ; preds = %.lr.ph, %83
  %.042 = phi i64 [ 0, %.lr.ph ], [ %84, %83 ]
  %50 = getelementptr inbounds i64, ptr %27, i64 %.042
  %51 = load i64, ptr %50, align 8
  %52 = call ptr @H5VL_object_verify(i64 noundef %51, i32 noundef 7) #9
  store ptr %52, ptr %1, align 8
  %53 = icmp eq ptr %52, null
  br i1 %53, label %54, label %58

54:                                               ; preds = %49
  %55 = load i64, ptr @H5E_ATTR_g, align 8
  %56 = load i64, ptr @H5E_BADTYPE_g, align 8
  %57 = call i32 (ptr, ptr, i32, i64, i64, ptr, ...) @H5E_printf_stack(ptr noundef nonnull @.str, ptr noundef nonnull @__func__.H5O__attr_find_opened_attr, i32 noundef 673, i64 noundef %55, i64 noundef %56, ptr noundef nonnull @.str.61) #9
  br label %.thread36

58:                                               ; preds = %49
  %59 = getelementptr inbounds i8, ptr %52, i64 40
  %60 = load ptr, ptr %59, align 8
  %61 = call i32 @H5F_get_fileno(ptr noundef %60, ptr noundef nonnull %7) #9
  %62 = icmp slt i32 %61, 0
  br i1 %62, label %63, label %67

63:                                               ; preds = %58
  %64 = load i64, ptr @H5E_ATTR_g, align 8
  %65 = load i64, ptr @H5E_BADVALUE_g, align 8
  %66 = call i32 (ptr, ptr, i32, i64, i64, ptr, ...) @H5E_printf_stack(ptr noundef nonnull @.str, ptr noundef nonnull @__func__.H5O__attr_find_opened_attr, i32 noundef 677, i64 noundef %64, i64 noundef %65, ptr noundef nonnull @.str.56) #9
  br label %.thread36

67:                                               ; preds = %58
  %68 = load ptr, ptr %1, align 8
  %69 = getelementptr inbounds i8, ptr %68, i64 96
  %70 = load ptr, ptr %69, align 8
  %71 = getelementptr inbounds i8, ptr %70, i64 8
  %72 = load ptr, ptr %71, align 8
  %73 = call i32 @strcmp(ptr noundef nonnull dereferenceable(1) %2, ptr noundef nonnull dereferenceable(1) %72) #11
  %.not29 = icmp eq i32 %73, 0
  br i1 %.not29, label %74, label %83

74:                                               ; preds = %67
  %75 = load i64, ptr %44, align 8
  %76 = getelementptr inbounds i8, ptr %68, i64 48
  %77 = load i64, ptr %76, align 8
  %78 = icmp eq i64 %75, %77
  br i1 %78, label %79, label %83

79:                                               ; preds = %74
  %80 = load i64, ptr %4, align 8
  %81 = load i64, ptr %7, align 8
  %82 = icmp eq i64 %80, %81
  br i1 %82, label %.thread36, label %83

83:                                               ; preds = %67, %74, %79
  %84 = add nuw i64 %.042, 1
  %85 = load i64, ptr %5, align 8
  %86 = icmp ult i64 %84, %85
  br i1 %86, label %49, label %.thread36

.thread36:                                        ; preds = %79, %83, %.preheader, %63, %54, %45, %37
  %.02341 = phi i32 [ -1, %37 ], [ -1, %45 ], [ -1, %54 ], [ -1, %63 ], [ 0, %.preheader ], [ 1, %79 ], [ 0, %83 ]
  call void @free(ptr noundef nonnull %27) #9
  br label %.thread

.thread:                                          ; preds = %23, %29, %19, %11, %.thread36
  %.02334 = phi i32 [ %.02341, %.thread36 ], [ 0, %23 ], [ -1, %29 ], [ -1, %19 ], [ -1, %11 ]
  ret i32 %.02334
}